target datalayout = "e-m:e-p270:32:32-p271:32:32-p272:64:64-i64:64-i128:128-f80:128-n8:16:32:64-S128"
target triple = "x86_64-pc-linux-gnu"

%class.mpff_manager = type <{ i32, i32, %class.svector, i32, i8, [3 x i8], %class.id_gen, [4 x %class.svector], %class.svector, %class.mpff, [8 x i8] }>
%class.id_gen = type { i32, %class.svector }
%class.svector = type { %class.vector }
%class.vector = type { ptr }
%class.mpff = type { i32, i32 }

; Function Attrs: mustprogress nounwind uwtable
define linkonce_odr hidden noundef i32 @_ZNK6vectorIjLb0EjE8capacityEv(ptr noundef nonnull align 8 dereferenceable(8) %0) #5 comdat align 2 {
  %2 = alloca i32, align 4
  %3 = alloca ptr, align 8
  store ptr %0, ptr %3, align 8, !tbaa !32
  %4 = load ptr, ptr %3, align 8
  %5 = getelementptr inbounds nuw %class.vector, ptr %4, i32 0, i32 0
  %6 = load ptr, ptr %5, align 8, !tbaa !35
  %7 = icmp eq ptr %6, null
  br i1 %7, label %8, label %9

8:                                                ; preds = %1
  store i32 0, ptr %2, align 4
  br label %14

9:                                                ; preds = %1
  %10 = getelementptr inbounds nuw %class.vector, ptr %4, i32 0, i32 0
  %11 = load ptr, ptr %10, align 8, !tbaa !35
  %12 = getelementptr inbounds i32, ptr %11, i64 -2
  %13 = load i32, ptr %12, align 4, !tbaa !8
  store i32 %13, ptr %2, align 4
  br label %14

14:                                               ; preds = %9, %8
  %15 = load i32, ptr %2, align 4
  ret i32 %15
}

; Function Attrs: mustprogress nounwind uwtable
define linkonce_odr hidden void @_ZN6vectorIjLb0EjE6shrinkEj(ptr noundef nonnull align 8 dereferenceable(8) %0, i32 noundef %1) #5 comdat align 2 {
  %3 = alloca ptr, align 8
  %4 = alloca i32, align 4
  store ptr %0, ptr %3, align 8, !tbaa !32
  store i32 %1, ptr %4, align 4, !tbaa !8
  %5 = load ptr, ptr %3, align 8
  %6 = getelementptr inbounds nuw %class.vector, ptr %5, i32 0, i32 0
  %7 = load ptr, ptr %6, align 8, !tbaa !35
  %8 = icmp ne ptr %7, null
  br i1 %8, label %9, label %14

9:                                                ; preds = %2
  %10 = load i32, ptr %4, align 4, !tbaa !8
  %11 = getelementptr inbounds nuw %class.vector, ptr %5, i32 0, i32 0
  %12 = load ptr, ptr %11, align 8, !tbaa !35
  %13 = getelementptr inbounds i32, ptr %12, i64 -1
  store i32 %10, ptr %13, align 4, !tbaa !8
  br label %15

14:                                               ; preds = %2
  br label %15

15:                                               ; preds = %14, %9
  ret void
}

; Function Attrs: mustprogress nounwind uwtable
define linkonce_odr hidden noundef i32 @_ZNK6vectorIjLb0EjE4sizeEv(ptr noundef nonnull align 8 dereferenceable(8) %0) #5 comdat align 2 {
  %2 = alloca i32, align 4
  %3 = alloca ptr, align 8
  store ptr %0, ptr %3, align 8, !tbaa !32
  %4 = load ptr, ptr %3, align 8
  %5 = getelementptr inbounds nuw %class.vector, ptr %4, i32 0, i32 0
  %6 = load ptr, ptr %5, align 8, !tbaa !35
  %7 = icmp eq ptr %6, null
  br i1 %7, label %8, label %9

8:                                                ; preds = %1
  store i32 0, ptr %2, align 4
  br label %14

9:                                                ; preds = %1
  %10 = getelementptr inbounds nuw %class.vector, ptr %4, i32 0, i32 0
  %11 = load ptr, ptr %10, align 8, !tbaa !35
  %12 = getelementptr inbounds i32, ptr %11, i64 -1
  %13 = load i32, ptr %12, align 4, !tbaa !8
  store i32 %13, ptr %2, align 4
  br label %14

14:                                               ; preds = %9, %8
  %15 = load i32, ptr %2, align 4
  ret i32 %15
}

; Function Attrs: mustprogress uwtable
define linkonce_odr hidden void @_ZN6vectorIjLb0EjE6resizeIiEEvjT_z(ptr noundef nonnull align 8 dereferenceable(8) %0, i32 noundef %1, i32 noundef %2, ...) #4 comdat align 2 {
  %4 = alloca ptr, align 8
  %5 = alloca i32, align 4
  %6 = alloca i32, align 4
  %7 = alloca i32, align 4
  %8 = alloca i32, align 4
  %9 = alloca ptr, align 8
  %10 = alloca ptr, align 8
  store ptr %0, ptr %4, align 8, !tbaa !32
  store i32 %1, ptr %5, align 4, !tbaa !8
  store i32 %2, ptr %6, align 4, !tbaa !8
  %11 = load ptr, ptr %4, align 8
  call void @llvm.lifetime.start.p0(i64 4, ptr %7) #3
  %12 = call noundef i32 @_ZNK6vectorIjLb0EjE4sizeEv(ptr noundef nonnull align 8 dereferenceable(8) %11)
  store i32 %12, ptr %7, align 4, !tbaa !8
  %13 = load i32, ptr %5, align 4, !tbaa !8
  %14 = load i32, ptr %7, align 4, !tbaa !8
  %15 = icmp ule i32 %13, %14
  br i1 %15, label %16, label %18

16:                                               ; preds = %3
  %17 = load i32, ptr %5, align 4, !tbaa !8
  call void @_ZN6vectorIjLb0EjE6shrinkEj(ptr noundef nonnull align 8 dereferenceable(8) %11, i32 noundef %17)
  store i32 1, ptr %8, align 4
  br label %50

18:                                               ; preds = %3
  br label %19

19:                                               ; preds = %23, %18
  %20 = load i32, ptr %5, align 4, !tbaa !8
  %21 = call noundef i32 @_ZNK6vectorIjLb0EjE8capacityEv(ptr noundef nonnull align 8 dereferenceable(8) %11)
  %22 = icmp ugt i32 %20, %21
  br i1 %22, label %23, label %24

23:                                               ; preds = %19
  call void @_ZN6vectorIjLb0EjE13expand_vectorEv(ptr noundef nonnull align 8 dereferenceable(8) %11)
  br label %19, !llvm.loop !34

24:                                               ; preds = %19
  %25 = load i32, ptr %5, align 4, !tbaa !8
  %26 = getelementptr inbounds nuw %class.vector, ptr %11, i32 0, i32 0
  %27 = load ptr, ptr %26, align 8, !tbaa !35
  %28 = getelementptr inbounds i32, ptr %27, i64 -1
  store i32 %25, ptr %28, align 4, !tbaa !8
  call void @llvm.lifetime.start.p0(i64 8, ptr %9) #3
  %29 = getelementptr inbounds nuw %class.vector, ptr %11, i32 0, i32 0
  %30 = load ptr, ptr %29, align 8, !tbaa !35
  %31 = load i32, ptr %7, align 4, !tbaa !8
  %32 = zext i32 %31 to i64
  %33 = getelementptr inbounds nuw i32, ptr %30, i64 %32
  store ptr %33, ptr %9, align 8, !tbaa !36
  call void @llvm.lifetime.start.p0(i64 8, ptr %10) #3
  %34 = getelementptr inbounds nuw %class.vector, ptr %11, i32 0, i32 0
  %35 = load ptr, ptr %34, align 8, !tbaa !35
  %36 = load i32, ptr %5, align 4, !tbaa !8
  %37 = zext i32 %36 to i64
  %38 = getelementptr inbounds nuw i32, ptr %35, i64 %37
  store ptr %38, ptr %10, align 8, !tbaa !36
  br label %39

39:                                               ; preds = %46, %24
  %40 = load ptr, ptr %9, align 8, !tbaa !36
  %41 = load ptr, ptr %10, align 8, !tbaa !36
  %42 = icmp ne ptr %40, %41
  br i1 %42, label %43, label %49

43:                                               ; preds = %39
  %44 = load ptr, ptr %9, align 8, !tbaa !36
  %45 = load i32, ptr %6, align 4, !tbaa !8
  store i32 %45, ptr %44, align 4, !tbaa !8
  br label %46

46:                                               ; preds = %43
  %47 = load ptr, ptr %9, align 8, !tbaa !36
  %48 = getelementptr inbounds nuw i32, ptr %47, i32 1
  store ptr %48, ptr %9, align 8, !tbaa !36
  br label %39, !llvm.loop !37

49:                                               ; preds = %39
  call void @llvm.lifetime.end.p0(i64 8, ptr %10) #3
  call void @llvm.lifetime.end.p0(i64 8, ptr %9) #3
  store i32 0, ptr %8, align 4
  br label %50

50:                                               ; preds = %49, %16
  call void @llvm.lifetime.end.p0(i64 4, ptr %7) #3
  %51 = load i32, ptr %8, align 4
  switch i32 %51, label %53 [
    i32 0, label %52
    i32 1, label %52
  ]

52:                                               ; preds = %50, %50
  ret void

53:                                               ; preds = %50
  unreachable
}

; Function Attrs: mustprogress uwtable
define hidden void @_ZN12mpff_manager6expandEv(ptr noundef nonnull align 8 dereferenceable(89) %0) #4 align 2 {
  %2 = alloca ptr, align 8
  store ptr %0, ptr %2, align 8, !tbaa !3
  %3 = load ptr, ptr %2, align 8
  %4 = getelementptr inbounds nuw %class.mpff_manager, ptr %3, i32 0, i32 3
  %5 = load i32, ptr %4, align 8, !tbaa !20
  %6 = mul i32 2, %5
  %7 = getelementptr inbounds nuw %class.mpff_manager, ptr %3, i32 0, i32 3
  store i32 %6, ptr %7, align 8, !tbaa !20
  %8 = getelementptr inbounds nuw %class.mpff_manager, ptr %3, i32 0, i32 2
  %9 = getelementptr inbounds nuw %class.mpff_manager, ptr %3, i32 0, i32 3
  %10 = load i32, ptr %9, align 8, !tbaa !20
  %11 = getelementptr inbounds nuw %class.mpff_manager, ptr %3, i32 0, i32 0
  %12 = load i32, ptr %11, align 8, !tbaa !10
  %13 = mul i32 %10, %12
  call void (ptr, i32, i32, ...) @_ZN6vectorIjLb0EjE6resizeIiEEvjT_z(ptr noundef nonnull align 8 dereferenceable(8) %8, i32 noundef %13, i32 noundef 0)
  ret void
}