; Function Attrs: mustprogress uwtable
define hidden void @_ZN12mpff_manager6expandEv(ptr noundef nonnull align 8 dereferenceable(89) %0) local_unnamed_addr #3 align 2 {
  %2 = getelementptr inbounds nuw i8, ptr %0, i64 16
  %3 = load i32, ptr %2, align 8, !tbaa !19
  %4 = shl i32 %3, 1
  store i32 %4, ptr %2, align 8, !tbaa !19
  %5 = getelementptr inbounds nuw i8, ptr %0, i64 8
  %6 = load i32, ptr %0, align 8, !tbaa !13
  %7 = mul i32 %6, %4
  %8 = load ptr, ptr %5, align 8, !tbaa !3
  %9 = icmp eq ptr %8, null
  br i1 %9, label %_ZNK6vectorIjLb0EjE4sizeEv.exit.i, label %_ZNK6vectorIjLb0EjE4sizeEv.exit.thread.i

_ZNK6vectorIjLb0EjE4sizeEv.exit.i:                ; preds = %1
  %.not.not.i = icmp eq i32 %7, 0
  br i1 %.not.not.i, label %_ZN6vectorIjLb0EjE6resizeIiEEvjT_z.exit, label %thread-pre-split.i.preheader

_ZNK6vectorIjLb0EjE4sizeEv.exit.thread.i:         ; preds = %1
  %10 = getelementptr inbounds i8, ptr %8, i64 -4
  %11 = load i32, ptr %10, align 4, !tbaa !21
  %.not16.i = icmp ugt i32 %7, %11
  br i1 %.not16.i, label %thread-pre-split.i.preheader, label %12

thread-pre-split.i.preheader:                     ; preds = %_ZNK6vectorIjLb0EjE4sizeEv.exit.i, %_ZNK6vectorIjLb0EjE4sizeEv.exit.thread.i
  %.ph = phi ptr [ %8, %_ZNK6vectorIjLb0EjE4sizeEv.exit.thread.i ], [ null, %_ZNK6vectorIjLb0EjE4sizeEv.exit.i ]
  %.0.i17.i.ph = phi i32 [ %11, %_ZNK6vectorIjLb0EjE4sizeEv.exit.thread.i ], [ 0, %_ZNK6vectorIjLb0EjE4sizeEv.exit.i ]
  br label %thread-pre-split.i

12:                                               ; preds = %_ZNK6vectorIjLb0EjE4sizeEv.exit.thread.i
  store i32 %7, ptr %10, align 4, !tbaa !21
  br label %_ZN6vectorIjLb0EjE6resizeIiEEvjT_z.exit

thread-pre-split.i:                               ; preds = %thread-pre-split.i.preheader, %_ZNK6vectorIjLb0EjE8capacityEv.exit.thread.i
  %13 = phi ptr [ %.pr.pre.i, %_ZNK6vectorIjLb0EjE8capacityEv.exit.thread.i ], [ %.ph, %thread-pre-split.i.preheader ]
  %14 = icmp eq ptr %13, null
  br i1 %14, label %_ZNK6vectorIjLb0EjE8capacityEv.exit.thread.i, label %_ZNK6vectorIjLb0EjE8capacityEv.exit.i

_ZNK6vectorIjLb0EjE8capacityEv.exit.i:            ; preds = %thread-pre-split.i
  %15 = getelementptr inbounds i8, ptr %13, i64 -8
  %16 = load i32, ptr %15, align 4, !tbaa !21
  %17 = icmp ugt i32 %7, %16
  br i1 %17, label %_ZNK6vectorIjLb0EjE8capacityEv.exit.thread.i, label %18

_ZNK6vectorIjLb0EjE8capacityEv.exit.thread.i:     ; preds = %_ZNK6vectorIjLb0EjE8capacityEv.exit.i, %thread-pre-split.i
  tail call void @_ZN6vectorIjLb0EjE13expand_vectorEv(ptr noundef nonnull align 8 dereferenceable(8) %5)
  %.pr.pre.i = load ptr, ptr %5, align 8, !tbaa !3
  br label %thread-pre-split.i, !llvm.loop !22

18:                                               ; preds = %_ZNK6vectorIjLb0EjE8capacityEv.exit.i
  %19 = getelementptr inbounds i8, ptr %13, i64 -4
  store i32 %7, ptr %19, align 4, !tbaa !21
  %.not1319.i = icmp eq i32 %.0.i17.i.ph, %7
  br i1 %.not1319.i, label %_ZN6vectorIjLb0EjE6resizeIiEEvjT_z.exit, label %.lr.ph.preheader.i

.lr.ph.preheader.i:                               ; preds = %18
  %20 = zext i32 %7 to i64
  %21 = zext i32 %.0.i17.i.ph to i64
  %22 = getelementptr i32, ptr %13, i64 %21
  %23 = shl nuw nsw i64 %20, 2
  %24 = add nsw i64 %23, -4
  %25 = shl nuw nsw i64 %21, 2
  %26 = sub nsw i64 %24, %25
  %27 = add nsw i64 %26, 4
  tail call void @llvm.memset.p0.i64(ptr align 4 %22, i8 0, i64 %27, i1 false), !tbaa !21
  br label %_ZN6vectorIjLb0EjE6resizeIiEEvjT_z.exit

_ZN6vectorIjLb0EjE6resizeIiEEvjT_z.exit:          ; preds = %.lr.ph.preheader.i, %_ZNK6vectorIjLb0EjE4sizeEv.exit.i, %12, %18
  ret void
}